target datalayout = "e-m:e-p270:32:32-p271:32:32-p272:64:64-i64:64-i128:128-f80:128-n8:16:32:64-S128"
target triple = "x86_64-pc-linux-gnu"

%struct.cmsCIEXYZ = type { double, double, double }
%struct.BCHSWADJUSTS = type { double, double, double, double, i32, %struct.cmsCIEXYZ, %struct.cmsCIEXYZ }
%struct.cmsCIELab = type { double, double, double }
%struct.cmsCIELCh = type { double, double, double }

; Function Attrs: nounwind uwtable
define internal i32 @bchswSampler(ptr noundef %0, ptr noundef %1, ptr noundef %2) #0 {
  %4 = alloca ptr, align 8
  %5 = alloca ptr, align 8
  %6 = alloca ptr, align 8
  %7 = alloca %struct.cmsCIELab, align 8
  %8 = alloca %struct.cmsCIELab, align 8
  %9 = alloca %struct.cmsCIELCh, align 8
  %10 = alloca %struct.cmsCIELCh, align 8
  %11 = alloca %struct.cmsCIEXYZ, align 8
  %12 = alloca ptr, align 8
  store ptr %0, ptr %4, align 8
  store ptr %1, ptr %5, align 8
  store ptr %2, ptr %6, align 8
  %13 = load ptr, ptr %6, align 8
  store ptr %13, ptr %12, align 8
  %14 = load ptr, ptr %4, align 8
  call void @cmsLabEncoded2Float(ptr noundef %7, ptr noundef %14)
  call void @cmsLab2LCh(ptr noundef %9, ptr noundef %7)
  %15 = getelementptr inbounds %struct.cmsCIELCh, ptr %9, i32 0, i32 0
  %16 = load double, ptr %15, align 8
  %17 = load ptr, ptr %12, align 8
  %18 = getelementptr inbounds %struct.BCHSWADJUSTS, ptr %17, i32 0, i32 1
  %19 = load double, ptr %18, align 8
  %20 = load ptr, ptr %12, align 8
  %21 = getelementptr inbounds %struct.BCHSWADJUSTS, ptr %20, i32 0, i32 0
  %22 = load double, ptr %21, align 8
  %23 = call double @llvm.fmuladd.f64(double %16, double %19, double %22)
  %24 = getelementptr inbounds %struct.cmsCIELCh, ptr %10, i32 0, i32 0
  store double %23, ptr %24, align 8
  %25 = getelementptr inbounds %struct.cmsCIELCh, ptr %9, i32 0, i32 1
  %26 = load double, ptr %25, align 8
  %27 = load ptr, ptr %12, align 8
  %28 = getelementptr inbounds %struct.BCHSWADJUSTS, ptr %27, i32 0, i32 3
  %29 = load double, ptr %28, align 8
  %30 = fadd double %26, %29
  %31 = getelementptr inbounds %struct.cmsCIELCh, ptr %10, i32 0, i32 1
  store double %30, ptr %31, align 8
  %32 = getelementptr inbounds %struct.cmsCIELCh, ptr %9, i32 0, i32 2
  %33 = load double, ptr %32, align 8
  %34 = load ptr, ptr %12, align 8
  %35 = getelementptr inbounds %struct.BCHSWADJUSTS, ptr %34, i32 0, i32 2
  %36 = load double, ptr %35, align 8
  %37 = fadd double %33, %36
  %38 = getelementptr inbounds %struct.cmsCIELCh, ptr %10, i32 0, i32 2
  store double %37, ptr %38, align 8
  call void @cmsLCh2Lab(ptr noundef %8, ptr noundef %10)
  %39 = load ptr, ptr %12, align 8
  %40 = getelementptr inbounds %struct.BCHSWADJUSTS, ptr %39, i32 0, i32 4
  %41 = load i32, ptr %40, align 8
  %42 = icmp ne i32 %41, 0
  br i1 %42, label %43, label %48

43:                                               ; preds = %3
  %44 = load ptr, ptr %12, align 8
  %45 = getelementptr inbounds %struct.BCHSWADJUSTS, ptr %44, i32 0, i32 5
  call void @cmsLab2XYZ(ptr noundef %45, ptr noundef %11, ptr noundef %8)
  %46 = load ptr, ptr %12, align 8
  %47 = getelementptr inbounds %struct.BCHSWADJUSTS, ptr %46, i32 0, i32 6
  call void @cmsXYZ2Lab(ptr noundef %47, ptr noundef %8, ptr noundef %11)
  br label %48

48:                                               ; preds = %43, %3
  %49 = load ptr, ptr %5, align 8
  call void @cmsFloat2LabEncoded(ptr noundef %49, ptr noundef %8)
  ret i32 1
}