; Function Attrs: nounwind uwtable
define internal noundef i32 @bchswSampler(ptr noundef %0, ptr noundef %1, ptr noundef %2) #0 {
  %4 = alloca %struct.cmsCIELab, align 8
  %5 = alloca %struct.cmsCIELab, align 8
  %6 = alloca %struct.cmsCIELCh, align 8
  %7 = alloca %struct.cmsCIELCh, align 8
  %8 = alloca %struct.cmsCIEXYZ, align 8
  call void @cmsLabEncoded2Float(ptr noundef nonnull %4, ptr noundef %0) #7
  call void @cmsLab2LCh(ptr noundef nonnull %6, ptr noundef nonnull %4) #7
  %9 = load double, ptr %6, align 8
  %10 = getelementptr inbounds i8, ptr %2, i64 8
  %11 = load double, ptr %10, align 8
  %12 = load double, ptr %2, align 8
  %13 = call double @llvm.fmuladd.f64(double %9, double %11, double %12)
  store double %13, ptr %7, align 8
  %14 = getelementptr inbounds i8, ptr %6, i64 8
  %15 = getelementptr inbounds i8, ptr %7, i64 8
  %16 = getelementptr inbounds i8, ptr %2, i64 16
  %17 = load <2 x double>, ptr %14, align 8
  %18 = load <2 x double>, ptr %16, align 8
  %19 = shufflevector <2 x double> %18, <2 x double> poison, <2 x i32> <i32 1, i32 0>
  %20 = fadd <2 x double> %17, %19
  store <2 x double> %20, ptr %15, align 8
  call void @cmsLCh2Lab(ptr noundef nonnull %5, ptr noundef nonnull %7) #7
  %21 = getelementptr inbounds i8, ptr %2, i64 32
  %22 = load i32, ptr %21, align 8
  %.not = icmp eq i32 %22, 0
  br i1 %.not, label %26, label %23

23:                                               ; preds = %3
  %24 = getelementptr inbounds i8, ptr %2, i64 40
  call void @cmsLab2XYZ(ptr noundef nonnull %24, ptr noundef nonnull %8, ptr noundef nonnull %5) #7
  %25 = getelementptr inbounds i8, ptr %2, i64 64
  call void @cmsXYZ2Lab(ptr noundef nonnull %25, ptr noundef nonnull %5, ptr noundef nonnull %8) #7
  br label %26

26:                                               ; preds = %23, %3
  call void @cmsFloat2LabEncoded(ptr noundef %1, ptr noundef nonnull %5) #7
  ret i32 1
}